target datalayout = "e-m:e-p270:32:32-p271:32:32-p272:64:64-i64:64-i128:128-f80:128-n8:16:32:64-S128"
target triple = "x86_64-unknown-linux-gnu"

%"class.google::protobuf::internal::ParseContext" = type { %"class.google::protobuf::internal::EpsCopyInputStream", i32, i32, %"struct.google::protobuf::internal::ParseContext::Data" }
%"class.google::protobuf::internal::EpsCopyInputStream" = type { ptr, ptr, ptr, i32, i32, ptr, [32 x i8], i64, i32, i32 }
%"struct.google::protobuf::internal::ParseContext::Data" = type { ptr, ptr }
%"class.google::protobuf::io::ZeroCopyInputStream" = type { ptr }
%"class.google::protobuf::io::FileInputStream" = type { %"class.google::protobuf::io::ZeroCopyInputStream", %"class.google::protobuf::io::FileInputStream::CopyingFileInputStream", %"class.google::protobuf::io::CopyingInputStreamAdaptor" }
%"class.google::protobuf::io::FileInputStream::CopyingFileInputStream" = type <{ %"class.google::protobuf::io::CopyingInputStream", i32, i8, i8, [2 x i8], i32, i8, [3 x i8] }>
%"class.google::protobuf::io::CopyingInputStream" = type { ptr }
%"class.google::protobuf::io::CopyingInputStreamAdaptor" = type <{ %"class.google::protobuf::io::ZeroCopyInputStream", ptr, i8, i8, [6 x i8], i64, %"class.std::unique_ptr.12", i32, i32, i32, [4 x i8] }>
%"class.std::unique_ptr.12" = type { %"struct.std::__uniq_ptr_data.13" }
%"struct.std::__uniq_ptr_data.13" = type { %"class.std::__uniq_ptr_impl.14" }
%"class.std::__uniq_ptr_impl.14" = type { %"class.std::tuple.15" }
%"class.std::tuple.15" = type { %"struct.std::_Tuple_impl.16" }
%"struct.std::_Tuple_impl.16" = type { %"struct.std::_Head_base.19" }
%"struct.std::_Head_base.19" = type { ptr }

@_ZN6google8protobuf2io16CodedInputStream24default_recursion_limit_E = external global i32, align 4

; Function Attrs: mustprogress uwtable
define linkonce_odr hidden noundef zeroext i1 @_ZNK6google8protobuf11MessageLite23IsInitializedWithErrorsEv(ptr noundef nonnull align 8 dereferenceable(16) %this) #4 comdat align 2 {
entry:
  %retval = alloca i1, align 1
  %this.addr = alloca ptr, align 8
  store ptr %this, ptr %this.addr, align 8
  %this1 = load ptr, ptr %this.addr, align 8
  %vtable = load ptr, ptr %this1, align 8
  %vfn = getelementptr inbounds ptr, ptr %vtable, i64 4
  %0 = load ptr, ptr %vfn, align 8
  %call = call noundef zeroext i1 %0(ptr noundef nonnull align 8 dereferenceable(16) %this1)
  br i1 %call, label %if.then, label %if.end

if.then:                                          ; preds = %entry
  store i1 true, ptr %retval, align 1
  br label %return

if.end:                                           ; preds = %entry
  call void @_ZNK6google8protobuf11MessageLite29LogInitializationErrorMessageEv(ptr noundef nonnull align 8 dereferenceable(16) %this1)
  store i1 false, ptr %retval, align 1
  br label %return

return:                                           ; preds = %if.end, %if.then
  %1 = load i1, ptr %retval, align 1
  ret i1 %1
}

; Function Attrs: mustprogress nounwind uwtable
define linkonce_odr hidden void @_ZN6google8protobuf8internal12ParseContext4DataC2Ev(ptr noundef nonnull align 8 dereferenceable(16) %this) unnamed_addr #5 comdat align 2 {
entry:
  %this.addr = alloca ptr, align 8
  store ptr %this, ptr %this.addr, align 8
  %this1 = load ptr, ptr %this.addr, align 8
  %pool = getelementptr inbounds %"struct.google::protobuf::internal::ParseContext::Data", ptr %this1, i32 0, i32 0
  store ptr null, ptr %pool, align 8
  %factory = getelementptr inbounds %"struct.google::protobuf::internal::ParseContext::Data", ptr %this1, i32 0, i32 1
  store ptr null, ptr %factory, align 8
  ret void
}

; Function Attrs: mustprogress nounwind uwtable
define linkonce_odr hidden void @_ZN6google8protobuf8internal18EpsCopyInputStreamC2Eb(ptr noundef nonnull align 8 dereferenceable(88) %this, i1 noundef zeroext %enable_aliasing) unnamed_addr #5 comdat align 2 {
entry:
  %this.addr = alloca ptr, align 8
  %enable_aliasing.addr = alloca i8, align 1
  store ptr %this, ptr %this.addr, align 8
  %frombool = zext i1 %enable_aliasing to i8
  store i8 %frombool, ptr %enable_aliasing.addr, align 1
  %this1 = load ptr, ptr %this.addr, align 8
  %zcis_ = getelementptr inbounds %"class.google::protobuf::internal::EpsCopyInputStream", ptr %this1, i32 0, i32 5
  store ptr null, ptr %zcis_, align 8
  %patch_buffer_ = getelementptr inbounds %"class.google::protobuf::internal::EpsCopyInputStream", ptr %this1, i32 0, i32 6
  %arrayinit.begin = getelementptr inbounds [32 x i8], ptr %patch_buffer_, i64 0, i64 0
  %arrayinit.end = getelementptr inbounds i8, ptr %arrayinit.begin, i64 32
  br label %arrayinit.body

arrayinit.body:                                   ; preds = %arrayinit.body, %entry
  %arrayinit.cur = phi ptr [ %arrayinit.begin, %entry ], [ %arrayinit.next, %arrayinit.body ]
  store i8 0, ptr %arrayinit.cur, align 1
  %arrayinit.next = getelementptr inbounds i8, ptr %arrayinit.cur, i64 1
  %arrayinit.done = icmp eq ptr %arrayinit.next, %arrayinit.end
  br i1 %arrayinit.done, label %arrayinit.end2, label %arrayinit.body

arrayinit.end2:                                   ; preds = %arrayinit.body
  %aliasing_ = getelementptr inbounds %"class.google::protobuf::internal::EpsCopyInputStream", ptr %this1, i32 0, i32 7
  %0 = load i8, ptr %enable_aliasing.addr, align 1
  %tobool = trunc i8 %0 to i1
  %cond = select i1 %tobool, i32 1, i32 0
  %conv = zext i32 %cond to i64
  store i64 %conv, ptr %aliasing_, align 8
  %last_tag_minus_1_ = getelementptr inbounds %"class.google::protobuf::internal::EpsCopyInputStream", ptr %this1, i32 0, i32 8
  store i32 0, ptr %last_tag_minus_1_, align 8
  %overall_limit_ = getelementptr inbounds %"class.google::protobuf::internal::EpsCopyInputStream", ptr %this1, i32 0, i32 9
  store i32 2147483647, ptr %overall_limit_, align 4
  ret void
}

; Function Attrs: mustprogress uwtable
define internal noundef zeroext i1 @_ZN6google8protobuf12_GLOBAL__N_118CheckFieldPresenceERKNS0_8internal12ParseContextERKNS0_11MessageLiteENS6_10ParseFlagsE(ptr noundef nonnull align 8 dereferenceable(112) %ctx, ptr noundef nonnull align 8 dereferenceable(16) %msg, i32 noundef %parse_flags) #4 {
entry:
  %retval = alloca i1, align 1
  %ctx.addr = alloca ptr, align 8
  %msg.addr = alloca ptr, align 8
  %parse_flags.addr = alloca i32, align 4
  store ptr %ctx, ptr %ctx.addr, align 8
  store ptr %msg, ptr %msg.addr, align 8
  store i32 %parse_flags, ptr %parse_flags.addr, align 4
  %0 = load i32, ptr %parse_flags.addr, align 4
  %and = and i32 %0, 2
  %cmp = icmp ne i32 %and, 0
  br i1 %cmp, label %if.then, label %if.end

if.then:                                          ; preds = %entry
  store i1 true, ptr %retval, align 1
  br label %return

if.end:                                           ; preds = %entry
  %1 = load ptr, ptr %msg.addr, align 8
  %call = call noundef zeroext i1 @_ZNK6google8protobuf11MessageLite23IsInitializedWithErrorsEv(ptr noundef nonnull align 8 dereferenceable(16) %1)
  store i1 %call, ptr %retval, align 1
  br label %return

return:                                           ; preds = %if.end, %if.then
  %2 = load i1, ptr %retval, align 1
  ret i1 %2
}

; Function Attrs: mustprogress nounwind uwtable
define linkonce_odr hidden noundef zeroext i1 @_ZNK6google8protobuf8internal18EpsCopyInputStream18EndedAtEndOfStreamEv(ptr noundef nonnull align 8 dereferenceable(88) %this) #5 comdat align 2 {
entry:
  %this.addr = alloca ptr, align 8
  store ptr %this, ptr %this.addr, align 8
  %this1 = load ptr, ptr %this.addr, align 8
  %last_tag_minus_1_ = getelementptr inbounds %"class.google::protobuf::internal::EpsCopyInputStream", ptr %this1, i32 0, i32 8
  %0 = load i32, ptr %last_tag_minus_1_, align 8
  %cmp = icmp eq i32 %0, 1
  ret i1 %cmp
}

; Function Attrs: mustprogress uwtable
define linkonce_odr hidden void @_ZN6google8protobuf8internal12ParseContextC2IJRPNS0_2io19ZeroCopyInputStreamEEEEibPPKcDpOT_(ptr noundef nonnull align 8 dereferenceable(112) %this, i32 noundef %depth, i1 noundef zeroext %aliasing, ptr noundef %start, ptr noundef nonnull align 8 dereferenceable(8) %args) unnamed_addr #4 comdat align 2 {
entry:
  %this.addr = alloca ptr, align 8
  %depth.addr = alloca i32, align 4
  %aliasing.addr = alloca i8, align 1
  %start.addr = alloca ptr, align 8
  %args.addr = alloca ptr, align 8
  store ptr %this, ptr %this.addr, align 8
  store i32 %depth, ptr %depth.addr, align 4
  %frombool = zext i1 %aliasing to i8
  store i8 %frombool, ptr %aliasing.addr, align 1
  store ptr %start, ptr %start.addr, align 8
  store ptr %args, ptr %args.addr, align 8
  %this1 = load ptr, ptr %this.addr, align 8
  %0 = load i8, ptr %aliasing.addr, align 1
  %tobool = trunc i8 %0 to i1
  call void @_ZN6google8protobuf8internal18EpsCopyInputStreamC2Eb(ptr noundef nonnull align 8 dereferenceable(88) %this1, i1 noundef zeroext %tobool)
  %depth_ = getelementptr inbounds %"class.google::protobuf::internal::ParseContext", ptr %this1, i32 0, i32 1
  %1 = load i32, ptr %depth.addr, align 4
  store i32 %1, ptr %depth_, align 8
  %group_depth_ = getelementptr inbounds %"class.google::protobuf::internal::ParseContext", ptr %this1, i32 0, i32 2
  store i32 -2147483648, ptr %group_depth_, align 4
  %data_ = getelementptr inbounds %"class.google::protobuf::internal::ParseContext", ptr %this1, i32 0, i32 3
  call void @_ZN6google8protobuf8internal12ParseContext4DataC2Ev(ptr noundef nonnull align 8 dereferenceable(16) %data_) #3
  %2 = load ptr, ptr %args.addr, align 8
  %3 = load ptr, ptr %2, align 8
  %call = call noundef ptr @_ZN6google8protobuf8internal18EpsCopyInputStream8InitFromEPNS0_2io19ZeroCopyInputStreamE(ptr noundef nonnull align 8 dereferenceable(88) %this1, ptr noundef %3)
  %4 = load ptr, ptr %start.addr, align 8
  store ptr %call, ptr %4, align 8
  ret void
}

; Function Attrs: mustprogress nounwind uwtable
define linkonce_odr hidden noundef i32 @_ZN6google8protobuf2io16CodedInputStream24GetDefaultRecursionLimitEv() #5 comdat align 2 {
entry:
  %0 = load i32, ptr @_ZN6google8protobuf2io16CodedInputStream24default_recursion_limit_E, align 4
  ret i32 %0
}

; Function Attrs: mustprogress uwtable
define weak_odr noundef zeroext i1 @_ZN6google8protobuf8internal13MergeFromImplILb0EEEbPNS0_2io19ZeroCopyInputStreamEPNS0_11MessageLiteENS6_10ParseFlagsE(ptr noundef %input, ptr noundef %msg, i32 noundef %parse_flags) #4 comdat {
entry:
  %retval = alloca i1, align 1
  %input.addr = alloca ptr, align 8
  %msg.addr = alloca ptr, align 8
  %parse_flags.addr = alloca i32, align 4
  %ptr = alloca ptr, align 8
  %ctx = alloca %"class.google::protobuf::internal::ParseContext", align 8
  store ptr %input, ptr %input.addr, align 8
  store ptr %msg, ptr %msg.addr, align 8
  store i32 %parse_flags, ptr %parse_flags.addr, align 4
  %call = call noundef i32 @_ZN6google8protobuf2io16CodedInputStream24GetDefaultRecursionLimitEv()
  call void @_ZN6google8protobuf8internal12ParseContextC2IJRPNS0_2io19ZeroCopyInputStreamEEEEibPPKcDpOT_(ptr noundef nonnull align 8 dereferenceable(112) %ctx, i32 noundef %call, i1 noundef zeroext false, ptr noundef %ptr, ptr noundef nonnull align 8 dereferenceable(8) %input.addr)
  %0 = load ptr, ptr %msg.addr, align 8
  %1 = load ptr, ptr %ptr, align 8
  %vtable = load ptr, ptr %0, align 8
  %vfn = getelementptr inbounds ptr, ptr %vtable, i64 7
  %2 = load ptr, ptr %vfn, align 8
  %call1 = call noundef ptr %2(ptr noundef nonnull align 8 dereferenceable(16) %0, ptr noundef %1, ptr noundef %ctx)
  store ptr %call1, ptr %ptr, align 8
  %3 = load ptr, ptr %ptr, align 8
  %tobool = icmp ne ptr %3, null
  br i1 %tobool, label %land.rhs, label %land.end

land.rhs:                                         ; preds = %entry
  %call2 = call noundef zeroext i1 @_ZNK6google8protobuf8internal18EpsCopyInputStream18EndedAtEndOfStreamEv(ptr noundef nonnull align 8 dereferenceable(88) %ctx)
  br label %land.end

land.end:                                         ; preds = %land.rhs, %entry
  %4 = phi i1 [ false, %entry ], [ %call2, %land.rhs ]
  br i1 %4, label %if.then, label %if.end

if.then:                                          ; preds = %land.end
  %5 = load ptr, ptr %msg.addr, align 8
  %6 = load i32, ptr %parse_flags.addr, align 4
  %call3 = call noundef zeroext i1 @_ZN6google8protobuf12_GLOBAL__N_118CheckFieldPresenceERKNS0_8internal12ParseContextERKNS0_11MessageLiteENS6_10ParseFlagsE(ptr noundef nonnull align 8 dereferenceable(112) %ctx, ptr noundef nonnull align 8 dereferenceable(16) %5, i32 noundef %6)
  store i1 %call3, ptr %retval, align 1
  br label %return

if.end:                                           ; preds = %land.end
  store i1 false, ptr %retval, align 1
  br label %return

return:                                           ; preds = %if.end, %if.then
  %7 = load i1, ptr %retval, align 1
  ret i1 %7
}

; Function Attrs: mustprogress nounwind uwtable
define linkonce_odr hidden void @_ZN6google8protobuf2io19ZeroCopyInputStreamD2Ev(ptr noundef nonnull align 8 dereferenceable(8) %this) unnamed_addr #5 comdat align 2 {
entry:
  %this.addr = alloca ptr, align 8
  store ptr %this, ptr %this.addr, align 8
  ret void
}

; Function Attrs: mustprogress nounwind uwtable
define linkonce_odr hidden noundef i32 @_ZNK6google8protobuf2io15FileInputStream22CopyingFileInputStream8GetErrnoEv(ptr noundef nonnull align 8 dereferenceable(24) %this) #5 comdat align 2 {
entry:
  %this.addr = alloca ptr, align 8
  store ptr %this, ptr %this.addr, align 8
  %this1 = load ptr, ptr %this.addr, align 8
  %errno_ = getelementptr inbounds %"class.google::protobuf::io::FileInputStream::CopyingFileInputStream", ptr %this1, i32 0, i32 5
  %0 = load i32, ptr %errno_, align 8
  ret i32 %0
}

; Function Attrs: mustprogress uwtable
define linkonce_odr noundef zeroext i1 @_ZN6google8protobuf11MessageLite9ParseFromILNS1_10ParseFlagsE1EPNS0_2io19ZeroCopyInputStreamEEEbRKT0_(ptr noundef nonnull align 8 dereferenceable(16) %this, ptr noundef nonnull align 8 dereferenceable(8) %input) #4 comdat align 2 {
entry:
  %this.addr = alloca ptr, align 8
  %input.addr = alloca ptr, align 8
  %alias = alloca i8, align 1
  store ptr %this, ptr %this.addr, align 8
  store ptr %input, ptr %input.addr, align 8
  %this1 = load ptr, ptr %this.addr, align 8
  %vtable = load ptr, ptr %this1, align 8
  %vfn = getelementptr inbounds ptr, ptr %vtable, i64 3
  %0 = load ptr, ptr %vfn, align 8
  call void %0(ptr noundef nonnull align 8 dereferenceable(16) %this1)
  store i8 0, ptr %alias, align 1
  %1 = load ptr, ptr %input.addr, align 8
  %2 = load ptr, ptr %1, align 8
  %call = call noundef zeroext i1 @_ZN6google8protobuf8internal13MergeFromImplILb0EEEbPNS0_2io19ZeroCopyInputStreamEPNS0_11MessageLiteENS6_10ParseFlagsE(ptr noundef %2, ptr noundef %this1, i32 noundef 1)
  ret i1 %call
}

; Function Attrs: mustprogress nounwind uwtable
define linkonce_odr hidden void @_ZN6google8protobuf2io15FileInputStreamD2Ev(ptr noundef nonnull align 8 dereferenceable(88) %this) unnamed_addr #5 comdat align 2 {
entry:
  %this.addr = alloca ptr, align 8
  store ptr %this, ptr %this.addr, align 8
  %this1 = load ptr, ptr %this.addr, align 8
  %impl_ = getelementptr inbounds %"class.google::protobuf::io::FileInputStream", ptr %this1, i32 0, i32 2
  call void @_ZN6google8protobuf2io25CopyingInputStreamAdaptorD1Ev(ptr noundef nonnull align 8 dereferenceable(52) %impl_) #3
  %copying_input_ = getelementptr inbounds %"class.google::protobuf::io::FileInputStream", ptr %this1, i32 0, i32 1
  call void @_ZN6google8protobuf2io15FileInputStream22CopyingFileInputStreamD1Ev(ptr noundef nonnull align 8 dereferenceable(24) %copying_input_) #3
  call void @_ZN6google8protobuf2io19ZeroCopyInputStreamD2Ev(ptr noundef nonnull align 8 dereferenceable(8) %this1) #3
  ret void
}

; Function Attrs: mustprogress uwtable
define linkonce_odr hidden noundef i32 @_ZNK6google8protobuf2io15FileInputStream8GetErrnoEv(ptr noundef nonnull align 8 dereferenceable(88) %this) #4 comdat align 2 {
entry:
  %this.addr = alloca ptr, align 8
  store ptr %this, ptr %this.addr, align 8
  %this1 = load ptr, ptr %this.addr, align 8
  %copying_input_ = getelementptr inbounds %"class.google::protobuf::io::FileInputStream", ptr %this1, i32 0, i32 1
  %call = call noundef i32 @_ZNK6google8protobuf2io15FileInputStream22CopyingFileInputStream8GetErrnoEv(ptr noundef nonnull align 8 dereferenceable(24) %copying_input_)
  ret i32 %call
}

; Function Attrs: mustprogress uwtable
define noundef zeroext i1 @_ZN6google8protobuf11MessageLite23ParseFromZeroCopyStreamEPNS0_2io19ZeroCopyInputStreamE(ptr noundef nonnull align 8 dereferenceable(16) %this, ptr noundef %input) #4 align 2 {
entry:
  %this.addr = alloca ptr, align 8
  %input.addr = alloca ptr, align 8
  store ptr %this, ptr %this.addr, align 8
  store ptr %input, ptr %input.addr, align 8
  %this1 = load ptr, ptr %this.addr, align 8
  %call = call noundef zeroext i1 @_ZN6google8protobuf11MessageLite9ParseFromILNS1_10ParseFlagsE1EPNS0_2io19ZeroCopyInputStreamEEEbRKT0_(ptr noundef nonnull align 8 dereferenceable(16) %this1, ptr noundef nonnull align 8 dereferenceable(8) %input.addr)
  ret i1 %call
}

; Function Attrs: mustprogress uwtable
define noundef zeroext i1 @_ZN6google8protobuf11MessageLite23ParseFromFileDescriptorEi(ptr noundef nonnull align 8 dereferenceable(16) %this, i32 noundef %file_descriptor) #4 align 2 personality ptr @__gxx_personality_v0 {
entry:
  %this.addr = alloca ptr, align 8
  %file_descriptor.addr = alloca i32, align 4
  %input = alloca %"class.google::protobuf::io::FileInputStream", align 8
  %exn.slot = alloca ptr, align 8
  %ehselector.slot = alloca i32, align 4
  store ptr %this, ptr %this.addr, align 8
  store i32 %file_descriptor, ptr %file_descriptor.addr, align 4
  %this1 = load ptr, ptr %this.addr, align 8
  %0 = load i32, ptr %file_descriptor.addr, align 4
  call void @_ZN6google8protobuf2io15FileInputStreamC1Eii(ptr noundef nonnull align 8 dereferenceable(88) %input, i32 noundef %0, i32 noundef -1)
  %call = invoke noundef zeroext i1 @_ZN6google8protobuf11MessageLite23ParseFromZeroCopyStreamEPNS0_2io19ZeroCopyInputStreamE(ptr noundef nonnull align 8 dereferenceable(16) %this1, ptr noundef %input)
          to label %invoke.cont unwind label %lpad

invoke.cont:                                      ; preds = %entry
  br i1 %call, label %land.rhs, label %land.end

land.rhs:                                         ; preds = %invoke.cont
  %call3 = invoke noundef i32 @_ZNK6google8protobuf2io15FileInputStream8GetErrnoEv(ptr noundef nonnull align 8 dereferenceable(88) %input)
          to label %invoke.cont2 unwind label %lpad

invoke.cont2:                                     ; preds = %land.rhs
  %cmp = icmp eq i32 %call3, 0
  br label %land.end

land.end:                                         ; preds = %invoke.cont2, %invoke.cont
  %1 = phi i1 [ false, %invoke.cont ], [ %cmp, %invoke.cont2 ]
  call void @_ZN6google8protobuf2io15FileInputStreamD2Ev(ptr noundef nonnull align 8 dereferenceable(88) %input) #3
  ret i1 %1

lpad:                                             ; preds = %land.rhs, %entry
  %2 = landingpad { ptr, i32 }
          cleanup
  %3 = extractvalue { ptr, i32 } %2, 0
  store ptr %3, ptr %exn.slot, align 8
  %4 = extractvalue { ptr, i32 } %2, 1
  store i32 %4, ptr %ehselector.slot, align 4
  call void @_ZN6google8protobuf2io15FileInputStreamD2Ev(ptr noundef nonnull align 8 dereferenceable(88) %input) #3
  br label %eh.resume

eh.resume:                                        ; preds = %lpad
  %exn = load ptr, ptr %exn.slot, align 8
  %sel = load i32, ptr %ehselector.slot, align 4
  %lpad.val = insertvalue { ptr, i32 } poison, ptr %exn, 0
  %lpad.val4 = insertvalue { ptr, i32 } %lpad.val, i32 %sel, 1
  resume { ptr, i32 } %lpad.val4
}